target datalayout = "e-m:e-p270:32:32-p271:32:32-p272:64:64-i64:64-i128:128-f80:128-n8:16:32:64-S128"
target triple = "x86_64-pc-linux-gnu"

%struct.Wlc_Ntk_t_ = type { ptr, ptr, %struct.Vec_Int_t_, %struct.Vec_Int_t_, %struct.Vec_Int_t_, %struct.Vec_Int_t_, %struct.Vec_Int_t_, %struct.Vec_Int_t_, ptr, ptr, ptr, [60 x i32], [60 x i32], i32, i32, i32, i32, i32, ptr, i32, i32, ptr, ptr, ptr, ptr, ptr, %struct.Vec_Int_t_, %struct.Vec_Int_t_, i32, %struct.Vec_Int_t_, %struct.Vec_Int_t_, %struct.Vec_Int_t_, %struct.Vec_Int_t_, %struct.Vec_Int_t_, %struct.Vec_Int_t_ }
%struct.Vec_Int_t_ = type { i32, i32, ptr }
%struct.Wlc_Obj_t_ = type { i16, i32, i32, i32, %union.anon }
%union.anon = type { [1 x ptr] }
%struct.Vec_Wrd_t_ = type { i32, i32, ptr }

; Function Attrs: inlinehint nounwind uwtable
define internal i64 @Vec_WrdEntry(ptr noundef %0, i32 noundef %1) #2 {
  %3 = alloca ptr, align 8
  %4 = alloca i32, align 4
  store ptr %0, ptr %3, align 8, !tbaa !94
  store i32 %1, ptr %4, align 4, !tbaa !8
  %5 = load ptr, ptr %3, align 8, !tbaa !94
  %6 = getelementptr inbounds nuw %struct.Vec_Wrd_t_, ptr %5, i32 0, i32 2
  %7 = load ptr, ptr %6, align 8, !tbaa !119
  %8 = load i32, ptr %4, align 4, !tbaa !8
  %9 = sext i32 %8 to i64
  %10 = getelementptr inbounds i64, ptr %7, i64 %9
  %11 = load i64, ptr %10, align 8, !tbaa !113
  ret i64 %11
}

; Function Attrs: inlinehint nounwind uwtable
define internal i32 @Wlc_ObjIsPi(ptr noundef %0) #2 {
  %2 = alloca ptr, align 8
  store ptr %0, ptr %2, align 8, !tbaa !12
  %3 = load ptr, ptr %2, align 8, !tbaa !12
  %4 = load i16, ptr %3, align 8
  %5 = and i16 %4, 63
  %6 = zext i16 %5 to i32
  %7 = icmp eq i32 %6, 1
  %8 = zext i1 %7 to i32
  ret i32 %8
}

; Function Attrs: inlinehint nounwind uwtable
define internal ptr @Wlc_NtkObj(ptr noundef %0, i32 noundef %1) #2 {
  %3 = alloca ptr, align 8
  %4 = alloca i32, align 4
  store ptr %0, ptr %3, align 8, !tbaa !3
  store i32 %1, ptr %4, align 4, !tbaa !8
  %5 = load ptr, ptr %3, align 8, !tbaa !3
  %6 = getelementptr inbounds nuw %struct.Wlc_Ntk_t_, ptr %5, i32 0, i32 18
  %7 = load ptr, ptr %6, align 8, !tbaa !20
  %8 = load i32, ptr %4, align 4, !tbaa !8
  %9 = sext i32 %8 to i64
  %10 = getelementptr inbounds %struct.Wlc_Obj_t_, ptr %7, i64 %9
  ret ptr %10
}

; Function Attrs: inlinehint nounwind uwtable
define internal i32 @Vec_IntEntry(ptr noundef %0, i32 noundef %1) #2 {
  %3 = alloca ptr, align 8
  %4 = alloca i32, align 4
  store ptr %0, ptr %3, align 8, !tbaa !10
  store i32 %1, ptr %4, align 4, !tbaa !8
  %5 = load ptr, ptr %3, align 8, !tbaa !10
  %6 = getelementptr inbounds nuw %struct.Vec_Int_t_, ptr %5, i32 0, i32 2
  %7 = load ptr, ptr %6, align 8, !tbaa !33
  %8 = load i32, ptr %4, align 4, !tbaa !8
  %9 = sext i32 %8 to i64
  %10 = getelementptr inbounds i32, ptr %7, i64 %9
  %11 = load i32, ptr %10, align 4, !tbaa !8
  ret i32 %11
}

; Function Attrs: inlinehint nounwind uwtable
define internal i32 @Vec_IntSize(ptr noundef %0) #2 {
  %2 = alloca ptr, align 8
  store ptr %0, ptr %2, align 8, !tbaa !10
  %3 = load ptr, ptr %2, align 8, !tbaa !10
  %4 = getelementptr inbounds nuw %struct.Vec_Int_t_, ptr %3, i32 0, i32 1
  %5 = load i32, ptr %4, align 4, !tbaa !31
  ret i32 %5
}

; Function Attrs: inlinehint nounwind uwtable
define internal i32 @Wlc_ObjCopy(ptr noundef %0, i32 noundef %1) #2 {
  %3 = alloca ptr, align 8
  %4 = alloca i32, align 4
  store ptr %0, ptr %3, align 8, !tbaa !3
  store i32 %1, ptr %4, align 4, !tbaa !8
  %5 = load ptr, ptr %3, align 8, !tbaa !3
  %6 = getelementptr inbounds nuw %struct.Wlc_Ntk_t_, ptr %5, i32 0, i32 30
  %7 = load i32, ptr %4, align 4, !tbaa !8
  %8 = call i32 @Vec_IntEntry(ptr noundef %6, i32 noundef %7)
  ret i32 %8
}

; Function Attrs: inlinehint nounwind uwtable
define internal i32 @Vec_IntEntryLast(ptr noundef %0) #2 {
  %2 = alloca ptr, align 8
  store ptr %0, ptr %2, align 8, !tbaa !10
  %3 = load ptr, ptr %2, align 8, !tbaa !10
  %4 = getelementptr inbounds nuw %struct.Vec_Int_t_, ptr %3, i32 0, i32 2
  %5 = load ptr, ptr %4, align 8, !tbaa !33
  %6 = load ptr, ptr %2, align 8, !tbaa !10
  %7 = getelementptr inbounds nuw %struct.Vec_Int_t_, ptr %6, i32 0, i32 1
  %8 = load i32, ptr %7, align 4, !tbaa !31
  %9 = sub nsw i32 %8, 1
  %10 = sext i32 %9 to i64
  %11 = getelementptr inbounds i32, ptr %5, i64 %10
  %12 = load i32, ptr %11, align 4, !tbaa !8
  ret i32 %12
}

; Function Attrs: nounwind uwtable
define i32 @Wlc_NtkTraceCheckConfict(ptr noundef %0, ptr noundef %1, ptr noundef %2, ptr noundef %3) #0 {
  %5 = alloca i32, align 4
  %6 = alloca ptr, align 8
  %7 = alloca ptr, align 8
  %8 = alloca ptr, align 8
  %9 = alloca ptr, align 8
  %10 = alloca ptr, align 8
  %11 = alloca ptr, align 8
  %12 = alloca i32, align 4
  %13 = alloca i32, align 4
  %14 = alloca i32, align 4
  %15 = alloca i32, align 4
  %16 = alloca i32, align 4
  %17 = alloca i32, align 4
  %18 = alloca i32, align 4
  %19 = alloca i32, align 4
  %20 = alloca i32, align 4
  store ptr %0, ptr %6, align 8, !tbaa !3
  store ptr %1, ptr %7, align 8, !tbaa !10
  store ptr %2, ptr %8, align 8, !tbaa !10
  store ptr %3, ptr %9, align 8, !tbaa !94
  call void @llvm.lifetime.start.p0(i64 8, ptr %10) #12
  call void @llvm.lifetime.start.p0(i64 8, ptr %11) #12
  call void @llvm.lifetime.start.p0(i64 4, ptr %12) #12
  %21 = load ptr, ptr %7, align 8, !tbaa !10
  %22 = call i32 @Vec_IntEntryLast(ptr noundef %21)
  %23 = ashr i32 %22, 11
  store i32 %23, ptr %12, align 4, !tbaa !8
  call void @llvm.lifetime.start.p0(i64 4, ptr %13) #12
  %24 = load ptr, ptr %7, align 8, !tbaa !10
  %25 = call i32 @Vec_IntEntryLast(ptr noundef %24)
  %26 = ashr i32 %25, 1
  %27 = and i32 %26, 1023
  store i32 %27, ptr %13, align 4, !tbaa !8
  call void @llvm.lifetime.start.p0(i64 4, ptr %14) #12
  %28 = load ptr, ptr %6, align 8, !tbaa !3
  %29 = load i32, ptr %12, align 4, !tbaa !8
  %30 = call i32 @Wlc_ObjCopy(ptr noundef %28, i32 noundef %29)
  store i32 %30, ptr %14, align 4, !tbaa !8
  call void @llvm.lifetime.start.p0(i64 4, ptr %15) #12
  %31 = load i32, ptr %13, align 4, !tbaa !8
  %32 = load ptr, ptr %8, align 8, !tbaa !10
  %33 = call i32 @Vec_IntSize(ptr noundef %32)
  %34 = mul nsw i32 %31, %33
  %35 = load i32, ptr %14, align 4, !tbaa !8
  %36 = add nsw i32 %34, %35
  %37 = mul nsw i32 3, %36
  store i32 %37, ptr %15, align 4, !tbaa !8
  call void @llvm.lifetime.start.p0(i64 4, ptr %16) #12
  %38 = load ptr, ptr %7, align 8, !tbaa !10
  %39 = call i32 @Vec_IntEntry(ptr noundef %38, i32 noundef 0)
  %40 = ashr i32 %39, 11
  store i32 %40, ptr %16, align 4, !tbaa !8
  call void @llvm.lifetime.start.p0(i64 4, ptr %17) #12
  %41 = load ptr, ptr %7, align 8, !tbaa !10
  %42 = call i32 @Vec_IntEntry(ptr noundef %41, i32 noundef 0)
  %43 = ashr i32 %42, 1
  %44 = and i32 %43, 1023
  store i32 %44, ptr %17, align 4, !tbaa !8
  call void @llvm.lifetime.start.p0(i64 4, ptr %18) #12
  %45 = load ptr, ptr %6, align 8, !tbaa !3
  %46 = load i32, ptr %16, align 4, !tbaa !8
  %47 = call i32 @Wlc_ObjCopy(ptr noundef %45, i32 noundef %46)
  store i32 %47, ptr %18, align 4, !tbaa !8
  call void @llvm.lifetime.start.p0(i64 4, ptr %19) #12
  %48 = load i32, ptr %17, align 4, !tbaa !8
  %49 = load ptr, ptr %8, align 8, !tbaa !10
  %50 = call i32 @Vec_IntSize(ptr noundef %49)
  %51 = mul nsw i32 %48, %50
  %52 = load i32, ptr %18, align 4, !tbaa !8
  %53 = add nsw i32 %51, %52
  %54 = mul nsw i32 3, %53
  store i32 %54, ptr %19, align 4, !tbaa !8
  %55 = load ptr, ptr %6, align 8, !tbaa !3
  %56 = load i32, ptr %12, align 4, !tbaa !8
  %57 = call ptr @Wlc_NtkObj(ptr noundef %55, i32 noundef %56)
  store ptr %57, ptr %10, align 8, !tbaa !12
  %58 = load ptr, ptr %6, align 8, !tbaa !3
  %59 = load i32, ptr %16, align 4, !tbaa !8
  %60 = call ptr @Wlc_NtkObj(ptr noundef %58, i32 noundef %59)
  store ptr %60, ptr %11, align 8, !tbaa !12
  %61 = load ptr, ptr %11, align 8, !tbaa !12
  %62 = call i32 @Wlc_ObjIsPi(ptr noundef %61)
  %63 = icmp ne i32 %62, 0
  br i1 %63, label %64, label %65

64:                                               ; preds = %4
  store i32 0, ptr %5, align 4
  store i32 1, ptr %20, align 4
  br label %76

65:                                               ; preds = %4
  %66 = load ptr, ptr %9, align 8, !tbaa !94
  %67 = load i32, ptr %15, align 4, !tbaa !8
  %68 = add nsw i32 %67, 2
  %69 = call i64 @Vec_WrdEntry(ptr noundef %66, i32 noundef %68)
  %70 = load ptr, ptr %9, align 8, !tbaa !94
  %71 = load i32, ptr %19, align 4, !tbaa !8
  %72 = add nsw i32 %71, 2
  %73 = call i64 @Vec_WrdEntry(ptr noundef %70, i32 noundef %72)
  %74 = icmp ne i64 %69, %73
  %75 = zext i1 %74 to i32
  store i32 %75, ptr %5, align 4
  store i32 1, ptr %20, align 4
  br label %76

76:                                               ; preds = %65, %64
  call void @llvm.lifetime.end.p0(i64 4, ptr %19) #12
  call void @llvm.lifetime.end.p0(i64 4, ptr %18) #12
  call void @llvm.lifetime.end.p0(i64 4, ptr %17) #12
  call void @llvm.lifetime.end.p0(i64 4, ptr %16) #12
  call void @llvm.lifetime.end.p0(i64 4, ptr %15) #12
  call void @llvm.lifetime.end.p0(i64 4, ptr %14) #12
  call void @llvm.lifetime.end.p0(i64 4, ptr %13) #12
  call void @llvm.lifetime.end.p0(i64 4, ptr %12) #12
  call void @llvm.lifetime.end.p0(i64 8, ptr %11) #12
  call void @llvm.lifetime.end.p0(i64 8, ptr %10) #12
  %77 = load i32, ptr %5, align 4
  ret i32 %77
}