; Function Attrs: mustprogress nofree norecurse nosync nounwind willreturn memory(read, inaccessiblemem: none) uwtable
define range(i32 0, 2) i32 @Wlc_NtkTraceCheckConfict(ptr noundef readonly captures(none) %0, ptr noundef readonly captures(none) %1, ptr noundef readonly captures(none) %2, ptr noundef readonly captures(none) %3) local_unnamed_addr #8 {
  %5 = getelementptr i8, ptr %1, i64 8
  %.val34 = load ptr, ptr %5, align 8, !tbaa !3
  %6 = load i32, ptr %.val34, align 4, !tbaa !10
  %7 = ashr i32 %6, 11
  %8 = sext i32 %7 to i64
  %9 = getelementptr i8, ptr %0, i64 640
  %.val27 = load ptr, ptr %9, align 8, !tbaa !11
  %10 = getelementptr inbounds %struct.Wlc_Obj_t_, ptr %.val27, i64 %8
  %.val30 = load i16, ptr %10, align 8
  %11 = and i16 %.val30, 63
  %.not = icmp eq i16 %11, 1
  br i1 %.not, label %47, label %12

12:                                               ; preds = %4
  %13 = getelementptr i8, ptr %0, i64 760
  %.val25 = load ptr, ptr %13, align 8, !tbaa !3
  %14 = getelementptr inbounds i32, ptr %.val25, i64 %8
  %15 = load i32, ptr %14, align 4, !tbaa !10
  %16 = getelementptr i8, ptr %2, i64 4
  %.val29 = load i32, ptr %16, align 4, !tbaa !26
  %17 = getelementptr i8, ptr %1, i64 4
  %.val33 = load i32, ptr %17, align 4, !tbaa !26
  %18 = sext i32 %.val33 to i64
  %19 = getelementptr i32, ptr %.val34, i64 %18
  %20 = getelementptr i8, ptr %19, i64 -4
  %21 = load i32, ptr %20, align 4, !tbaa !10
  %22 = ashr i32 %21, 11
  %23 = sext i32 %22 to i64
  %24 = getelementptr inbounds i32, ptr %.val25, i64 %23
  %25 = load i32, ptr %24, align 4, !tbaa !10
  %26 = lshr i32 %6, 1
  %27 = and i32 %26, 1023
  %28 = mul nsw i32 %.val29, %27
  %29 = add nsw i32 %28, %15
  %30 = mul nsw i32 %29, 3
  %31 = lshr i32 %21, 1
  %32 = and i32 %31, 1023
  %33 = mul nsw i32 %32, %.val29
  %34 = add nsw i32 %33, %25
  %35 = mul nsw i32 %34, 3
  %36 = getelementptr i8, ptr %3, i64 8
  %.val36 = load ptr, ptr %36, align 8, !tbaa !102
  %37 = sext i32 %35 to i64
  %38 = getelementptr i64, ptr %.val36, i64 %37
  %39 = getelementptr i8, ptr %38, i64 16
  %40 = load i64, ptr %39, align 8, !tbaa !106
  %41 = sext i32 %30 to i64
  %42 = getelementptr i64, ptr %.val36, i64 %41
  %43 = getelementptr i8, ptr %42, i64 16
  %44 = load i64, ptr %43, align 8, !tbaa !106
  %45 = icmp ne i64 %40, %44
  %46 = zext i1 %45 to i32
  br label %47

47:                                               ; preds = %4, %12
  %.0 = phi i32 [ %46, %12 ], [ 0, %4 ]
  ret i32 %.0
}